target datalayout = "e-m:e-p270:32:32-p271:32:32-p272:64:64-i64:64-i128:128-f80:128-n8:16:32:64-S128"
target triple = "x86_64-pc-linux-gnu"

@.str.4 = private unnamed_addr constant [2 x i8] c"\0A\00", align 1
@.str.5 = private unnamed_addr constant [25 x i8] c"    muxpack [selection]\0A\00", align 1
@.str.6 = private unnamed_addr constant [80 x i8] c"This pass converts cascaded chains of $pmux cells (e.g. those create from case\0A\00", align 1
@.str.7 = private unnamed_addr constant [76 x i8] c"constructs) and $mux cells (e.g. those created by if-else constructs) into\0A\00", align 1
@.str.8 = private unnamed_addr constant [14 x i8] c"$pmux cells.\0A\00", align 1
@.str.9 = private unnamed_addr constant [77 x i8] c"This optimisation is conservative --- it will only pack $mux or $pmux cells\0A\00", align 1
@.str.10 = private unnamed_addr constant [81 x i8] c"whose select lines are driven by '$eq' cells with other such cells if it can be\0A\00", align 1
@.str.11 = private unnamed_addr constant [58 x i8] c"certain that their select inputs are mutually exclusive.\0A\00", align 1

; Function Attrs: mustprogress uwtable
define internal void @_ZN12_GLOBAL__N_111MuxpackPass4helpEv(ptr noundef nonnull align 8 dereferenceable(104) %0) unnamed_addr #4 align 2 {
  %2 = alloca ptr, align 8
  store ptr %0, ptr %2, align 8, !tbaa !6
  call void (ptr, ...) @_ZN5Yosys3logEPKcz(ptr noundef @.str.4)
  call void (ptr, ...) @_ZN5Yosys3logEPKcz(ptr noundef @.str.5)
  call void (ptr, ...) @_ZN5Yosys3logEPKcz(ptr noundef @.str.4)
  call void (ptr, ...) @_ZN5Yosys3logEPKcz(ptr noundef @.str.6)
  call void (ptr, ...) @_ZN5Yosys3logEPKcz(ptr noundef @.str.7)
  call void (ptr, ...) @_ZN5Yosys3logEPKcz(ptr noundef @.str.8)
  call void (ptr, ...) @_ZN5Yosys3logEPKcz(ptr noundef @.str.4)
  call void (ptr, ...) @_ZN5Yosys3logEPKcz(ptr noundef @.str.9)
  call void (ptr, ...) @_ZN5Yosys3logEPKcz(ptr noundef @.str.10)
  call void (ptr, ...) @_ZN5Yosys3logEPKcz(ptr noundef @.str.11)
  call void (ptr, ...) @_ZN5Yosys3logEPKcz(ptr noundef @.str.4)
  ret void
}